target datalayout = "e-m:e-p270:32:32-p271:32:32-p272:64:64-i64:64-i128:128-f80:128-n8:16:32:64-S128"
target triple = "x86_64-pc-linux-gnu"

%struct.PageHeaderData = type { %struct.PageXLogRecPtr, i16, i16, i16, i16, i16, i16, i32, [0 x %struct.ItemIdData] }
%struct.PageXLogRecPtr = type { i32, i32 }
%struct.ItemIdData = type { i32 }
%struct.GinPageOpaqueData = type { i32, i16, i16 }

; Function Attrs: inlinehint nounwind uwtable
define internal ptr @PageGetContents(ptr noundef %0) #2 {
  %2 = alloca ptr, align 8
  store ptr %0, ptr %2, align 8
  %3 = load ptr, ptr %2, align 8
  %4 = getelementptr inbounds nuw i8, ptr %3, i64 24
  ret ptr %4
}

; Function Attrs: inlinehint nounwind uwtable
define internal void @PageValidateSpecialPointer(ptr noundef %0) #2 {
  %2 = alloca ptr, align 8
  store ptr %0, ptr %2, align 8
  ret void
}

; Function Attrs: nounwind uwtable
define dso_local void @GinPageDeletePostingItem(ptr noundef %0, i16 noundef zeroext %1) #0 {
  %3 = alloca ptr, align 8
  %4 = alloca i16, align 2
  %5 = alloca i16, align 2
  store ptr %0, ptr %3, align 8
  store i16 %1, ptr %4, align 2
  call void @llvm.lifetime.start.p0(i64 2, ptr %5) #7
  %6 = load ptr, ptr %3, align 8
  call void @PageValidateSpecialPointer(ptr noundef %6)
  %7 = load ptr, ptr %3, align 8
  %8 = load ptr, ptr %3, align 8
  %9 = getelementptr inbounds nuw %struct.PageHeaderData, ptr %8, i32 0, i32 5
  %10 = load i16, ptr %9, align 4
  %11 = zext i16 %10 to i32
  %12 = sext i32 %11 to i64
  %13 = getelementptr inbounds i8, ptr %7, i64 %12
  %14 = getelementptr inbounds nuw %struct.GinPageOpaqueData, ptr %13, i32 0, i32 1
  %15 = load i16, ptr %14, align 4
  store i16 %15, ptr %5, align 2
  %16 = load i16, ptr %4, align 2
  %17 = zext i16 %16 to i32
  %18 = load i16, ptr %5, align 2
  %19 = zext i16 %18 to i32
  %20 = icmp ne i32 %17, %19
  br i1 %20, label %21, label %48

21:                                               ; preds = %2
  %22 = load ptr, ptr %3, align 8
  %23 = call ptr @PageGetContents(ptr noundef %22)
  %24 = getelementptr inbounds nuw i8, ptr %23, i64 8
  %25 = load i16, ptr %4, align 2
  %26 = zext i16 %25 to i32
  %27 = sub i32 %26, 1
  %28 = sext i32 %27 to i64
  %29 = mul i64 %28, 10
  %30 = getelementptr inbounds nuw i8, ptr %24, i64 %29
  %31 = load ptr, ptr %3, align 8
  %32 = call ptr @PageGetContents(ptr noundef %31)
  %33 = getelementptr inbounds nuw i8, ptr %32, i64 8
  %34 = load i16, ptr %4, align 2
  %35 = zext i16 %34 to i32
  %36 = add i32 %35, 1
  %37 = sub i32 %36, 1
  %38 = sext i32 %37 to i64
  %39 = mul i64 %38, 10
  %40 = getelementptr inbounds nuw i8, ptr %33, i64 %39
  %41 = load i16, ptr %5, align 2
  %42 = zext i16 %41 to i32
  %43 = load i16, ptr %4, align 2
  %44 = zext i16 %43 to i32
  %45 = sub i32 %42, %44
  %46 = sext i32 %45 to i64
  %47 = mul i64 10, %46
  call void @llvm.memmove.p0.p0.i64(ptr align 2 %30, ptr align 2 %40, i64 %47, i1 false)
  br label %48

48:                                               ; preds = %21, %2
  %49 = load i16, ptr %5, align 2
  %50 = add i16 %49, -1
  store i16 %50, ptr %5, align 2
  %51 = load i16, ptr %5, align 2
  %52 = load ptr, ptr %3, align 8
  call void @PageValidateSpecialPointer(ptr noundef %52)
  %53 = load ptr, ptr %3, align 8
  %54 = load ptr, ptr %3, align 8
  %55 = getelementptr inbounds nuw %struct.PageHeaderData, ptr %54, i32 0, i32 5
  %56 = load i16, ptr %55, align 4
  %57 = zext i16 %56 to i32
  %58 = sext i32 %57 to i64
  %59 = getelementptr inbounds i8, ptr %53, i64 %58
  %60 = getelementptr inbounds nuw %struct.GinPageOpaqueData, ptr %59, i32 0, i32 1
  store i16 %51, ptr %60, align 4
  %61 = load i16, ptr %5, align 2
  %62 = zext i16 %61 to i64
  %63 = mul i64 %62, 10
  %64 = add i64 %63, 24
  %65 = add i64 %64, 8
  %66 = trunc i64 %65 to i16
  %67 = load ptr, ptr %3, align 8
  %68 = getelementptr inbounds nuw %struct.PageHeaderData, ptr %67, i32 0, i32 3
  store i16 %66, ptr %68, align 4
  call void @llvm.lifetime.end.p0(i64 2, ptr %5) #7
  ret void
}