; Function Attrs: mustprogress nofree norecurse nosync nounwind willreturn memory(argmem: readwrite) uwtable
define dso_local void @GinPageDeletePostingItem(ptr noundef captures(none) %0, i16 noundef zeroext %1) local_unnamed_addr #4 {
  %3 = getelementptr inbounds nuw i8, ptr %0, i64 16
  %4 = load i16, ptr %3, align 4
  %5 = zext i16 %4 to i64
  %6 = getelementptr inbounds nuw i8, ptr %0, i64 %5
  %7 = getelementptr inbounds nuw i8, ptr %6, i64 4
  %8 = load i16, ptr %7, align 4
  %.not = icmp eq i16 %1, %8
  br i1 %.not, label %22, label %9

9:                                                ; preds = %2
  %10 = zext i16 %8 to i32
  %11 = zext i16 %1 to i32
  %12 = getelementptr inbounds nuw i8, ptr %0, i64 32
  %13 = mul nuw nsw i32 %11, 10
  %14 = zext nneg i32 %13 to i64
  %15 = getelementptr i8, ptr %12, i64 %14
  %16 = getelementptr i8, ptr %15, i64 -10
  %17 = zext i16 %1 to i64
  %18 = mul nuw nsw i64 %17, 10
  %19 = getelementptr inbounds nuw i8, ptr %12, i64 %18
  %20 = sub nsw i32 %10, %11
  %narrow = mul nsw i32 %20, 10
  %21 = sext i32 %narrow to i64
  tail call void @llvm.memmove.p0.p0.i64(ptr align 2 %16, ptr nonnull align 2 %19, i64 %21, i1 false)
  %.pre = load i16, ptr %3, align 4
  %.pre18 = zext i16 %.pre to i64
  br label %22

22:                                               ; preds = %9, %2
  %.pre-phi = phi i64 [ %.pre18, %9 ], [ %5, %2 ]
  %23 = add i16 %8, -1
  %24 = getelementptr inbounds nuw i8, ptr %0, i64 %.pre-phi
  %25 = getelementptr inbounds nuw i8, ptr %24, i64 4
  store i16 %23, ptr %25, align 4
  %26 = mul i16 %23, 10
  %27 = add i16 %26, 32
  %28 = getelementptr inbounds nuw i8, ptr %0, i64 12
  store i16 %27, ptr %28, align 4
  ret void
}